; Function Attrs: mustprogress uwtable
define noundef nonnull align 8 dereferenceable(8) ptr @_ZN32pxrInternal_v0_24__pxrReserved__lsERSoRKNS_10GfRotationE(ptr noundef nonnull align 8 dereferenceable(8) %0, ptr nocapture noundef nonnull readonly align 8 dereferenceable(32) %1) local_unnamed_addr #0 {
  %3 = alloca %"class.pxrInternal_v0_24__pxrReserved__::GfVec3d", align 8
  %4 = tail call noundef nonnull align 8 dereferenceable(8) ptr @_ZStlsISt11char_traitsIcEERSt13basic_ostreamIcT_ES5_c(ptr noundef nonnull align 8 dereferenceable(8) %0, i8 noundef signext 91)
  call void @llvm.memcpy.p0.p0.i64(ptr noundef nonnull align 8 dereferenceable(24) %3, ptr noundef nonnull align 8 dereferenceable(24) %1, i64 24, i1 false)
  %5 = call noundef nonnull align 8 dereferenceable(8) ptr @_ZN32pxrInternal_v0_24__pxrReserved__lsERSoRKNS_7GfVec3dE(ptr noundef nonnull align 8 dereferenceable(8) %4, ptr noundef nonnull align 8 dereferenceable(24) %3)
  %6 = call noundef nonnull align 8 dereferenceable(8) ptr @_ZStlsISt11char_traitsIcEERSt13basic_ostreamIcT_ES5_PKc(ptr noundef nonnull align 8 dereferenceable(8) %5, ptr noundef nonnull @.str.6)
  %7 = getelementptr inbounds nuw i8, ptr %1, i64 24
  %8 = load double, ptr %7, align 8
  %9 = call noundef nonnull align 8 dereferenceable(8) ptr @_ZN32pxrInternal_v0_24__pxrReserved__lsERSoNS_14TfStreamDoubleE(ptr noundef nonnull align 8 dereferenceable(8) %6, double %8)
  %10 = call noundef nonnull align 8 dereferenceable(8) ptr @_ZStlsISt11char_traitsIcEERSt13basic_ostreamIcT_ES5_c(ptr noundef nonnull align 8 dereferenceable(8) %9, i8 noundef signext 93)
  ret ptr %10
}